target datalayout = "e-m:e-p270:32:32-p271:32:32-p272:64:64-i64:64-i128:128-f80:128-n8:16:32:64-S128"
target triple = "x86_64-pc-linux-gnu"

; Function Attrs: nounwind uwtable
define internal double @fact(double noundef %0) #1 {
  %2 = alloca double, align 8
  %3 = alloca double, align 8
  store double %0, ptr %3, align 8, !tbaa !95
  %4 = load double, ptr %3, align 8, !tbaa !95
  %5 = fcmp nsz ole double %4, 0.000000e+00
  br i1 %5, label %6, label %7

6:                                                ; preds = %1
  store double 1.000000e+00, ptr %2, align 8
  br label %13

7:                                                ; preds = %1
  %8 = load double, ptr %3, align 8, !tbaa !95
  %9 = load double, ptr %3, align 8, !tbaa !95
  %10 = fsub nsz double %9, 1.000000e+00
  %11 = call nsz double @fact(double noundef %10)
  %12 = fmul nsz double %8, %11
  store double %12, ptr %2, align 8
  br label %13

13:                                               ; preds = %7, %6
  %14 = load double, ptr %2, align 8
  ret double %14
}