; Function Attrs: nofree nosync nounwind memory(none) uwtable
define internal fastcc double @fact(double noundef %0) unnamed_addr #9 {
  %2 = fcmp nsz ugt double %0, 0.000000e+00
  br i1 %2, label %3, label %common.ret5

common.ret5:                                      ; preds = %1, %3
  %common.ret5.op = phi double [ %6, %3 ], [ 1.000000e+00, %1 ]
  ret double %common.ret5.op

3:                                                ; preds = %1
  %4 = fadd nsz double %0, -1.000000e+00
  %5 = tail call nsz fastcc double @fact(double noundef %4)
  %6 = fmul nsz double %0, %5
  br label %common.ret5
}